; Function Attrs: mustprogress nounwind uwtable
define hidden noundef ptr @_ZNK9EdgeStore3getE13UnifiedOopRef(ptr nocapture noundef nonnull readonly align 8 dereferenceable(8) %0, i64 %1) local_unnamed_addr #0 align 2 {
  %3 = load ptr, ptr %0, align 8
  %4 = lshr i64 %1, 1
  %5 = and i64 %4, 9223372036854775804
  %6 = getelementptr inbounds i8, ptr %3, i64 8
  %7 = load i64, ptr %6, align 8
  %8 = urem i64 %5, %7
  %9 = load ptr, ptr %3, align 8
  %10 = getelementptr inbounds %class.JfrHashtableBucket, ptr %9, i64 %8
  %11 = load volatile ptr, ptr %10, align 8
  tail call void asm sideeffect "", "~{memory},~{dirflag},~{fpsr},~{flags}"() #13, !srcloc !6
  %.not11.i = icmp eq ptr %11, null
  br i1 %.not11.i, label %_ZN13HashTableHostI10StoredEdgem17JfrHashtableEntry9EdgeStoreLm1009EE11lookup_onlyEm.exit.thread, label %.lr.ph.i

.lr.ph.i:                                         ; preds = %2, %15
  %.012.i = phi ptr [ %16, %15 ], [ %11, %2 ]
  %12 = getelementptr inbounds i8, ptr %.012.i, i64 40
  %13 = load i64, ptr %12, align 8
  %14 = icmp eq i64 %13, %5
  br i1 %14, label %_ZN13HashTableHostI10StoredEdgem17JfrHashtableEntry9EdgeStoreLm1009EE11lookup_onlyEm.exit, label %15

15:                                               ; preds = %.lr.ph.i
  %16 = load ptr, ptr %.012.i, align 8
  %.not.i = icmp eq ptr %16, null
  br i1 %.not.i, label %_ZN13HashTableHostI10StoredEdgem17JfrHashtableEntry9EdgeStoreLm1009EE11lookup_onlyEm.exit.thread, label %.lr.ph.i, !llvm.loop !7

_ZN13HashTableHostI10StoredEdgem17JfrHashtableEntry9EdgeStoreLm1009EE11lookup_onlyEm.exit: ; preds = %.lr.ph.i
  %17 = getelementptr inbounds i8, ptr %.012.i, i64 8
  br label %_ZN13HashTableHostI10StoredEdgem17JfrHashtableEntry9EdgeStoreLm1009EE11lookup_onlyEm.exit.thread

_ZN13HashTableHostI10StoredEdgem17JfrHashtableEntry9EdgeStoreLm1009EE11lookup_onlyEm.exit.thread: ; preds = %15, %2, %_ZN13HashTableHostI10StoredEdgem17JfrHashtableEntry9EdgeStoreLm1009EE11lookup_onlyEm.exit
  %18 = phi ptr [ %17, %_ZN13HashTableHostI10StoredEdgem17JfrHashtableEntry9EdgeStoreLm1009EE11lookup_onlyEm.exit ], [ null, %2 ], [ null, %15 ]
  ret ptr %18
}